; Function Attrs: mustprogress nounwind uwtable
define internal void @_ZN7testing8internal11MatcherBaseIRKN12_GLOBAL__N_112ErrnoPrinterEED0Ev(ptr noundef nonnull align 8 dereferenceable(24) initializes((0, 8)) %0) unnamed_addr #10 align 2 personality ptr @__gxx_personality_v0 {
  store ptr getelementptr inbounds nuw inrange(-16, 32) (i8, ptr @_ZTVN7testing8internal11MatcherBaseIRKN12_GLOBAL__N_112ErrnoPrinterEEE, i64 16), ptr %0, align 8, !tbaa !4
  %2 = getelementptr inbounds nuw i8, ptr %0, i64 8
  %.val.i.i = load ptr, ptr %2, align 8, !tbaa !53
  %.not.i.i.i = icmp eq ptr %.val.i.i, null
  br i1 %.not.i.i.i, label %_ZN7testing8internal11MatcherBaseIRKN12_GLOBAL__N_112ErrnoPrinterEED2Ev.exit, label %_ZNK7testing8internal11MatcherBaseIRKN12_GLOBAL__N_112ErrnoPrinterEE8IsSharedEv.exit.i.i

_ZNK7testing8internal11MatcherBaseIRKN12_GLOBAL__N_112ErrnoPrinterEE8IsSharedEv.exit.i.i: ; preds = %1
  %3 = getelementptr inbounds nuw i8, ptr %.val.i.i, i64 24
  %4 = load ptr, ptr %3, align 8, !tbaa !96
  %.not.i.i = icmp eq ptr %4, null
  br i1 %.not.i.i, label %_ZN7testing8internal11MatcherBaseIRKN12_GLOBAL__N_112ErrnoPrinterEED2Ev.exit, label %5

5:                                                ; preds = %_ZNK7testing8internal11MatcherBaseIRKN12_GLOBAL__N_112ErrnoPrinterEE8IsSharedEv.exit.i.i
  %6 = getelementptr inbounds nuw i8, ptr %0, i64 16
  %7 = load ptr, ptr %6, align 8, !tbaa !43
  %8 = atomicrmw sub ptr %7, i32 1 acq_rel, align 4
  %9 = icmp eq i32 %8, 1
  br i1 %9, label %10, label %_ZN7testing8internal11MatcherBaseIRKN12_GLOBAL__N_112ErrnoPrinterEED2Ev.exit

10:                                               ; preds = %5
  %11 = load ptr, ptr %2, align 8, !tbaa !53
  %12 = getelementptr inbounds nuw i8, ptr %11, i64 24
  %13 = load ptr, ptr %12, align 8, !tbaa !96
  %14 = load ptr, ptr %6, align 8, !tbaa !43
  invoke void %13(ptr noundef %14)
          to label %_ZN7testing8internal11MatcherBaseIRKN12_GLOBAL__N_112ErrnoPrinterEED2Ev.exit unwind label %15

15:                                               ; preds = %10
  %16 = landingpad { ptr, i32 }
          catch ptr null
  %17 = extractvalue { ptr, i32 } %16, 0
  tail call void @__clang_call_terminate(ptr %17) #24
  unreachable

_ZN7testing8internal11MatcherBaseIRKN12_GLOBAL__N_112ErrnoPrinterEED2Ev.exit: ; preds = %1, %_ZNK7testing8internal11MatcherBaseIRKN12_GLOBAL__N_112ErrnoPrinterEE8IsSharedEv.exit.i.i, %5, %10
  tail call void @_ZdlPvm(ptr noundef nonnull %0, i64 noundef 24) #25
  ret void
}